ccopy_reg
_reconstructor
p0
(cFWCore.ParameterSet.Config
Process
p1
c__builtin__
object
p2
Ntp3
Rp4
(dp5
S'_Process__sequences'
p6
(dp7
sS'_Process__services'
p8
(dp9
S'Timing'
p10
g0
(cFWCore.ParameterSet.Modules
Service
p11
g2
Ntp12
Rp13
(dp14
S'_Parameterizable__parameterNames'
p15
(lp16
sS'_isFrozen'
p17
I00
sS'_inProcess'
p18
I01
sS'_isModified'
p19
I00
sS'_lineNumber'
p20
I11
sS'_filename'
p21
S'/cvmfs/cms.cern.ch/slc6_amd64_gcc700/cms/cmssw-patch/CMSSW_10_2_24_patch1/python/FWCore/ParameterSet/Modules.py'
p22
sS'_TypedParameterizable__type'
p23
g10
sbsS'CondorStatusService'
p24
g0
(g11
g2
Ntp25
Rp26
(dp27
g15
(lp28
S'tag'
p29
asg17
I00
sg18
I01
sg19
I00
sg20
I11
sg21
S'/cvmfs/cms.cern.ch/slc6_amd64_gcc700/cms/cmssw-patch/CMSSW_10_2_24_patch1/python/FWCore/ParameterSet/Modules.py'
p30
sg29
g0
(cFWCore.ParameterSet.Types
string
p31
g2
Ntp32
Rp33
(dp34
g17
I00
sS'_ParameterTypeBase__isTracked'
p35
I00
sS'_value'
p36
S'_cmsRun1_'
p37
sg19
I00
sbsg23
g24
sbsS'SimpleMemoryCheck'
p38
g0
(g11
g2
Ntp39
Rp40
(dp41
g15
(lp42
sg17
I00
sg18
I01
sg19
I00
sg20
I11
sg21
g22
sg23
g38
sbsS'CPU'
p43
g0
(g11
g2
Ntp44
Rp45
(dp46
g15
(lp47
sg17
I00
sg18
I01
sg19
I00
sg20
I11
sg21
g22
sg23
g43
sbsS'InitRootHandlers'
p48
g0
(g11
g2
Ntp49
Rp50
(dp51
g15
(lp52
S'EnableIMT'
p53
asg17
I00
sg18
I01
sg19
I00
sg20
I11
sg21
S'/cvmfs/cms.cern.ch/slc6_amd64_gcc700/cms/cmssw-patch/CMSSW_10_2_24_patch1/python/FWCore/ParameterSet/Modules.py'
p54
sg53
g0
(cFWCore.ParameterSet.Types
bool
p55
g2
Ntp56
Rp57
(dp58
g17
I00
sg35
I00
sg36
I00
sg19
I00
sbsg23
g48
sbssS'_Process__source'
p59
g0
(cFWCore.ParameterSet.Modules
Source
p60
g2
Ntp61
Rp62
(dp63
g15
(lp64
S'bypassVersionCheck'
p65
aS'fileNames'
p66
aS'firstLuminosityBlock'
p67
aS'lastRun'
p68
aS'firstRun'
p69
aS'firstEvent'
p70
aS'secondaryFileNames'
p71
aS'lumisToProcess'
p72
aS'skipEvents'
p73
asg17
I00
sg19
I01
sg20
I193
sg67
g0
(cFWCore.ParameterSet.Types
uint32
p74
g2
Ntp75
Rp76
(dp77
g17
I00
sg35
I00
sg36
I1
sg19
I00
sbsg21
g54
sg73
g0
(g74
g2
Ntp78
Rp79
(dp80
g17
I00
sg35
I00
sg36
I0
sg19
I00
sbsg65
g0
(g55
g2
Ntp81
Rp82
(dp83
g17
I00
sg35
I00
sg36
I01
sg19
I00
sbsS'fileNames'
p84
g0
(cFWCore.ParameterSet.Types
vstring
p85
c__builtin__
list
p86
(lp87
tp88
Rp89
(dp90
g17
I00
sg35
I00
sg19
I00
sS'_nPerLine'
p91
I1
sbsg70
g0
(g74
g2
Ntp92
Rp93
(dp94
g17
I00
sg35
I00
sg36
I0
sg19
I00
sbsg71
g0
(g85
g86
(lp95
tp96
Rp97
(dp98
g17
I00
sg35
I00
sg19
I00
sg91
I1
sbsg72
g0
(cFWCore.ParameterSet.Types
VLuminosityBlockRange
p99
g86
(lp100
tp101
Rp102
(dp103
g17
I00
sg35
I00
sg19
I00
sbsg68
g0
(g74
g2
Ntp104
Rp105
(dp106
g17
I00
sg35
I00
sg36
I0
sg19
I00
sbsg23
S'PoolSource'
p107
sg69
g0
(g74
g2
Ntp108
Rp109
(dp110
g17
I00
sg35
I00
sg36
I0
sg19
I00
sbsbsS'_Process__aliases'
p111
(dp112
sg43
g45
sS'maxEvents'
p113
g0
(cFWCore.ParameterSet.Types
PSet
p114
g2
Ntp115
Rp116
(dp117
g17
I00
sg35
I00
sg19
I00
sg15
(lp118
S'input'
p119
asS'_Labelable__label'
p120
g113
sS'input'
p121
g0
(cFWCore.ParameterSet.Types
int32
p122
g2
Ntp123
Rp124
(dp125
g17
I00
sg35
I00
sg36
I-1
sg19
I00
sbsbsS'_Process__psets'
p126
(dp127
g113
g116
sS'options'
p128
g0
(g114
g2
Ntp129
Rp130
(dp131
g17
I00
sg35
I00
sg19
I00
sg120
g128
sg15
(lp132
sbssS'_Process__essources'
p133
(dp134
sg107
g62
sS'outputPath'
p135
g0
(cFWCore.ParameterSet.SequenceTypes
EndPath
p136
g2
Ntp137
Rp138
(dp139
g17
I00
sS'_seq'
p140
g0
(cFWCore.ParameterSet.SequenceTypes
_SequenceCollection
p141
g2
Ntp142
Rp143
(dp144
S'_collection'
p145
(lp146
g0
(cFWCore.ParameterSet.Modules
OutputModule
p147
g2
Ntp148
Rp149
(dp150
g15
(lp151
S'compressionLevel'
p152
aS'compressionAlgorithm'
p153
aS'outputCommands'
p154
aS'fileName'
p155
aS'logicalFileName'
p156
aS'dataset'
p157
aS'filterName'
p158
aS'datatier'
p159
asg17
I00
sg19
I01
sS'outputCommands'
p160
g0
(g85
g86
(lp161
S'drop *'
p162
aS'keep nanoaodFlatTable_*Table_*_*'
p163
aS'keep edmTriggerResults_*_*_*'
p164
aS'keep String_*_genModel_*'
p165
aS'keep nanoaodMergeableCounterTable_*Table_*_*'
p166
aS'keep nanoaodUniqueString_nanoMetadata_*_*'
p167
atp168
Rp169
(dp170
g17
I00
sg35
I00
sg19
I00
sg91
I1
sbsg152
g0
(g122
g2
Ntp171
Rp172
(dp173
g17
I00
sg35
I00
sg36
I9
sg19
I00
sbsg153
g0
(g31
g2
Ntp174
Rp175
(dp176
g17
I00
sg35
I00
sg36
S'LZMA'
p177
sg19
I00
sbsg159
g0
(g31
g2
Ntp178
Rp179
(dp180
g17
I00
sg35
I00
sg36
S''
p181
sg19
I00
sbsg155
g0
(g31
g2
Ntp182
Rp183
(dp184
g17
I00
sg35
I00
sg36
S'Merged.root'
p185
sg19
I00
sbsg20
I72
sg21
S'/cvmfs/cms.cern.ch/slc6_amd64_gcc700/cms/cmssw-patch/CMSSW_10_2_24_patch1/python/Configuration/DataProcessing/Merge.py'
p186
sg120
S'MergedError'
p187
sg158
g0
(g31
g2
Ntp188
Rp189
(dp190
g17
I00
sg35
I00
sg36
g181
sg19
I00
sbsg157
g0
(g114
g2
Ntp191
Rp192
(dp193
g17
I00
sg35
I00
sg19
I00
sg15
(lp194
sbsg156
g0
(g31
g2
Ntp195
Rp196
(dp197
g17
I00
sg35
I00
sg36
g181
sg19
I00
sbsg23
S'NanoAODOutputModule'
p198
sbasbsg120
g135
sg19
I00
sS'_tasks'
p199
g0
(cFWCore.ParameterSet.OrderedSet
OrderedSet
p200
g2
Ntp201
Rp202
(dp203
S'map'
p204
(dp205
sS'end'
p206
(lp207
Nag207
ag207
asbsbsS'source'
p208
g62
sS'_Process__vpsets'
p209
(dp210
sg48
g50
sS'_Process__name'
p211
S'Merge'
p212
sg10
g13
sg38
g40
sg24
g26
sS'_Process__subProcesses'
p213
(lp214
sS'_cloneToObjectDict'
p215
(dp216
I139660971501648
g149
sI139660971501008
g138
sI139660971502480
g130
sI139660971502352
g116
ssg187
g149
sS'_Process__esprefers'
p217
(dp218
sS'_Process__schedule'
p219
NsS'_Process__outputmodules'
p220
(dp221
g187
g149
ssS'_Process__analyzers'
p222
(dp223
sS'_Process__InExtendCall'
p224
I00
sS'_Process__modifiers'
p225
(tsS'_Process__producers'
p226
(dp227
sS'_Process__filters'
p228
(dp229
sS'_Process__looper'
p230
NsS'_Process__endpaths'
p231
g0
(cFWCore.ParameterSet.DictTypes
SortedKeysDict
p232
c__builtin__
dict
p233
(dp234
g135
g138
stp235
Rp236
(dp237
S'list'
p238
(lp239
g135
asbsS'_Process__esproducers'
p240
(dp241
sS'_Process__tasks'
p242
(dp243
sS'_Process__paths'
p244
g0
(g232
g233
(dp245
tp246
Rp247
(dp248
g238
(lp249
sbsS'_Process__partialschedules'
p250
(dp251
sg128
g130
sS'_Process__isStrict'
p252
I00
sb.